
/home/christians/git/RV32I-MAF-project/verif/tests/TowerOfHanoi/TowerOfHanoi.elf:     file format elf32-littleriscv


Disassembly of section .text:

00000000 <_start-0x1c>:
   0:	01c0006f          	j	1c <_start>
   4:	0440006f          	j	48 <reset_handler>
   8:	0c40006f          	j	cc <call_main_handler>
   c:	0d00006f          	j	dc <end_of_main_handler>
  10:	00000013          	nop
  14:	00000013          	nop
  18:	0cc0006f          	j	e4 <idle_handler>

0000001c <_start>:
  1c:	00000013          	nop
  20:	00000013          	nop
  24:	00000013          	nop
  28:	00000013          	nop
  2c:	00000013          	nop
  30:	00000013          	nop
  34:	00000013          	nop
  38:	00000013          	nop
  3c:	00000013          	nop
  40:	00000013          	nop
  44:	0040006f          	j	48 <reset_handler>

00000048 <reset_handler>:
  48:	00000093          	li	ra,0
  4c:	00008113          	mv	sp,ra
  50:	00008193          	mv	gp,ra
  54:	00008213          	mv	tp,ra
  58:	00008293          	mv	t0,ra
  5c:	00008313          	mv	t1,ra
  60:	00008393          	mv	t2,ra
  64:	00008413          	mv	s0,ra
  68:	00008493          	mv	s1,ra
  6c:	00008513          	mv	a0,ra
  70:	00008593          	mv	a1,ra
  74:	00008613          	mv	a2,ra
  78:	00008693          	mv	a3,ra
  7c:	00008713          	mv	a4,ra
  80:	00008793          	mv	a5,ra
  84:	00008813          	mv	a6,ra
  88:	00008893          	mv	a7,ra
  8c:	00008913          	mv	s2,ra
  90:	00008993          	mv	s3,ra
  94:	00008a13          	mv	s4,ra
  98:	00008a93          	mv	s5,ra
  9c:	00008b13          	mv	s6,ra
  a0:	00008b93          	mv	s7,ra
  a4:	00008c13          	mv	s8,ra
  a8:	00008c93          	mv	s9,ra
  ac:	00008d13          	mv	s10,ra
  b0:	00008d93          	mv	s11,ra
  b4:	00008e13          	mv	t3,ra
  b8:	00008e93          	mv	t4,ra
  bc:	00008f13          	mv	t5,ra
  c0:	00008f93          	mv	t6,ra
  c4:	00004137          	lui	sp,0x4
  c8:	0040006f          	j	cc <call_main_handler>

000000cc <call_main_handler>:
  cc:	00000513          	li	a0,0
  d0:	00000593          	li	a1,0
  d4:	0ac000ef          	jal	ra,180 <main>
  d8:	0040006f          	j	dc <end_of_main_handler>

000000dc <end_of_main_handler>:
  dc:	00050413          	mv	s0,a0
  e0:	0040006f          	j	e4 <idle_handler>

000000e4 <idle_handler>:
  e4:	00000013          	nop
  e8:	ffdff06f          	j	e4 <idle_handler>

000000ec <towerOfHanoi>:
  ec:	fe010113          	addi	sp,sp,-32 # 3fe0 <main+0x3e60>
  f0:	00112e23          	sw	ra,28(sp)
  f4:	00812c23          	sw	s0,24(sp)
  f8:	02010413          	addi	s0,sp,32
  fc:	fea42623          	sw	a0,-20(s0)
 100:	00058793          	mv	a5,a1
 104:	00068713          	mv	a4,a3
 108:	fef405a3          	sb	a5,-21(s0)
 10c:	00060793          	mv	a5,a2
 110:	fef40523          	sb	a5,-22(s0)
 114:	00070793          	mv	a5,a4
 118:	fef404a3          	sb	a5,-23(s0)
 11c:	fec42703          	lw	a4,-20(s0)
 120:	00100793          	li	a5,1
 124:	04f70463          	beq	a4,a5,16c <towerOfHanoi+0x80>
 128:	fec42783          	lw	a5,-20(s0)
 12c:	fff78793          	addi	a5,a5,-1
 130:	fea44683          	lbu	a3,-22(s0)
 134:	fe944603          	lbu	a2,-23(s0)
 138:	feb44703          	lbu	a4,-21(s0)
 13c:	00070593          	mv	a1,a4
 140:	00078513          	mv	a0,a5
 144:	fa9ff0ef          	jal	ra,ec <towerOfHanoi>
 148:	fec42783          	lw	a5,-20(s0)
 14c:	fff78793          	addi	a5,a5,-1
 150:	feb44683          	lbu	a3,-21(s0)
 154:	fea44603          	lbu	a2,-22(s0)
 158:	fe944703          	lbu	a4,-23(s0)
 15c:	00070593          	mv	a1,a4
 160:	00078513          	mv	a0,a5
 164:	f89ff0ef          	jal	ra,ec <towerOfHanoi>
 168:	0080006f          	j	170 <towerOfHanoi+0x84>
 16c:	00000013          	nop
 170:	01c12083          	lw	ra,28(sp)
 174:	01812403          	lw	s0,24(sp)
 178:	02010113          	addi	sp,sp,32
 17c:	00008067          	ret

00000180 <main>:
 180:	fe010113          	addi	sp,sp,-32
 184:	00112e23          	sw	ra,28(sp)
 188:	00812c23          	sw	s0,24(sp)
 18c:	02010413          	addi	s0,sp,32
 190:	00400793          	li	a5,4
 194:	fef42623          	sw	a5,-20(s0)
 198:	04200693          	li	a3,66
 19c:	04300613          	li	a2,67
 1a0:	04100593          	li	a1,65
 1a4:	fec42503          	lw	a0,-20(s0)
 1a8:	f45ff0ef          	jal	ra,ec <towerOfHanoi>
 1ac:	00000793          	li	a5,0
 1b0:	00078513          	mv	a0,a5
 1b4:	01c12083          	lw	ra,28(sp)
 1b8:	01812403          	lw	s0,24(sp)
 1bc:	02010113          	addi	sp,sp,32
 1c0:	00008067          	ret
